; Function Attrs: mustprogress uwtable
define noundef ptr @_ZN7rocksdb18BytewiseComparatorEv() local_unnamed_addr #1 personality ptr @__gxx_personality_v0 {
  %1 = load atomic i8, ptr @_ZGVZN7rocksdb18BytewiseComparatorEvE8bytewise acquire, align 8
  %2 = icmp eq i8 %1, 0
  br i1 %2, label %3, label %11, !prof !4

3:                                                ; preds = %0
  %4 = tail call i32 @__cxa_guard_acquire(ptr nonnull @_ZGVZN7rocksdb18BytewiseComparatorEvE8bytewise) #27
  %.not = icmp eq i32 %4, 0
  br i1 %.not, label %11, label %5

5:                                                ; preds = %3
  %6 = invoke noalias noundef nonnull dereferenceable(48) ptr @_Znwm(i64 noundef 48) #28
          to label %7 unwind label %13

7:                                                ; preds = %5
  %8 = getelementptr inbounds nuw i8, ptr %6, i64 8
  tail call void @llvm.memset.p0.i64(ptr noundef nonnull align 8 dereferenceable(24) %8, i8 0, i64 24, i1 false)
  %9 = getelementptr inbounds nuw i8, ptr %6, i64 32
  %10 = getelementptr inbounds nuw i8, ptr %6, i64 40
  store i64 0, ptr %10, align 8, !tbaa !5
  store ptr getelementptr inbounds nuw inrange(-16, 256) (i8, ptr @_ZTVN7rocksdb12_GLOBAL__N_122BytewiseComparatorImplE, i64 16), ptr %6, align 8, !tbaa !19
  store ptr getelementptr inbounds nuw inrange(-16, 24) (i8, ptr @_ZTVN7rocksdb12_GLOBAL__N_122BytewiseComparatorImplE, i64 288), ptr %9, align 8, !tbaa !19
  store ptr %6, ptr @_ZZN7rocksdb18BytewiseComparatorEvE8bytewise, align 8, !tbaa !21
  tail call void @__cxa_guard_release(ptr nonnull @_ZGVZN7rocksdb18BytewiseComparatorEvE8bytewise) #27
  br label %11

11:                                               ; preds = %7, %3, %0
  %12 = load ptr, ptr @_ZZN7rocksdb18BytewiseComparatorEvE8bytewise, align 8, !tbaa !21
  ret ptr %12

13:                                               ; preds = %5
  %14 = landingpad { ptr, i32 }
          cleanup
  tail call void @__cxa_guard_abort(ptr nonnull @_ZGVZN7rocksdb18BytewiseComparatorEvE8bytewise) #27
  resume { ptr, i32 } %14
}